target datalayout = "e-m:e-p270:32:32-p271:32:32-p272:64:64-i64:64-i128:128-f80:128-n8:16:32:64-S128"
target triple = "x86_64-pc-linux-gnu"

%struct.pxr_nc_1_0_XYZ = type { float, float, float }
%struct.pxr_nc_1_0_Yxy = type { float, float, float }

; Function Attrs: nounwind uwtable
define { <2 x float>, float } @pxr_nc_1_0_XYZToYxy(<2 x float> %0, float %1) #6 {
  %3 = alloca %struct.pxr_nc_1_0_Yxy, align 4
  %4 = alloca %struct.pxr_nc_1_0_XYZ, align 4
  %5 = alloca { <2 x float>, float }, align 4
  %6 = alloca float, align 4
  %7 = alloca { <2 x float>, float }, align 8
  %8 = getelementptr inbounds nuw { <2 x float>, float }, ptr %5, i32 0, i32 0
  store <2 x float> %0, ptr %8, align 4
  %9 = getelementptr inbounds nuw { <2 x float>, float }, ptr %5, i32 0, i32 1
  store float %1, ptr %9, align 4
  call void @llvm.memcpy.p0.p0.i64(ptr align 4 %4, ptr align 4 %5, i64 12, i1 false)
  %10 = getelementptr inbounds nuw %struct.pxr_nc_1_0_XYZ, ptr %4, i32 0, i32 0
  %11 = load float, ptr %10, align 4
  %12 = getelementptr inbounds nuw %struct.pxr_nc_1_0_XYZ, ptr %4, i32 0, i32 1
  %13 = load float, ptr %12, align 4
  %14 = fadd float %11, %13
  %15 = getelementptr inbounds nuw %struct.pxr_nc_1_0_XYZ, ptr %4, i32 0, i32 2
  %16 = load float, ptr %15, align 4
  %17 = fadd float %14, %16
  store float %17, ptr %6, align 4
  %18 = load float, ptr %6, align 4
  %19 = fcmp oeq float %18, 0.000000e+00
  br i1 %19, label %20, label %26

20:                                               ; preds = %2
  %21 = getelementptr inbounds nuw %struct.pxr_nc_1_0_Yxy, ptr %3, i32 0, i32 0
  store float 0.000000e+00, ptr %21, align 4
  %22 = getelementptr inbounds nuw %struct.pxr_nc_1_0_Yxy, ptr %3, i32 0, i32 1
  store float 0.000000e+00, ptr %22, align 4
  %23 = getelementptr inbounds nuw %struct.pxr_nc_1_0_Yxy, ptr %3, i32 0, i32 2
  %24 = getelementptr inbounds nuw %struct.pxr_nc_1_0_XYZ, ptr %4, i32 0, i32 1
  %25 = load float, ptr %24, align 4
  store float %25, ptr %23, align 4
  br label %40

26:                                               ; preds = %2
  %27 = getelementptr inbounds nuw %struct.pxr_nc_1_0_Yxy, ptr %3, i32 0, i32 0
  %28 = getelementptr inbounds nuw %struct.pxr_nc_1_0_XYZ, ptr %4, i32 0, i32 1
  %29 = load float, ptr %28, align 4
  store float %29, ptr %27, align 4
  %30 = getelementptr inbounds nuw %struct.pxr_nc_1_0_Yxy, ptr %3, i32 0, i32 1
  %31 = getelementptr inbounds nuw %struct.pxr_nc_1_0_XYZ, ptr %4, i32 0, i32 0
  %32 = load float, ptr %31, align 4
  %33 = load float, ptr %6, align 4
  %34 = fdiv float %32, %33
  store float %34, ptr %30, align 4
  %35 = getelementptr inbounds nuw %struct.pxr_nc_1_0_Yxy, ptr %3, i32 0, i32 2
  %36 = getelementptr inbounds nuw %struct.pxr_nc_1_0_XYZ, ptr %4, i32 0, i32 1
  %37 = load float, ptr %36, align 4
  %38 = load float, ptr %6, align 4
  %39 = fdiv float %37, %38
  store float %39, ptr %35, align 4
  br label %40

40:                                               ; preds = %26, %20
  call void @llvm.memcpy.p0.p0.i64(ptr align 8 %7, ptr align 4 %3, i64 12, i1 false)
  %41 = load { <2 x float>, float }, ptr %7, align 8
  ret { <2 x float>, float } %41
}