; Function Attrs: mustprogress nofree norecurse nosync nounwind willreturn memory(none) uwtable
define { <2 x float>, float } @pxr_nc_1_0_XYZToYxy(<2 x float> %0, float %1) local_unnamed_addr #13 {
  %.sroa.05.0.vec.extract = extractelement <2 x float> %0, i64 0
  %.sroa.05.4.vec.extract = extractelement <2 x float> %0, i64 1
  %3 = fadd float %.sroa.05.0.vec.extract, %.sroa.05.4.vec.extract
  %4 = fadd float %1, %3
  %5 = fcmp oeq float %4, 0.000000e+00
  %.sroa.014.0.vec.insert17 = insertelement <2 x float> poison, float %.sroa.05.4.vec.extract, i64 0
  %6 = fdiv float %.sroa.05.0.vec.extract, %4
  %.sroa.014.4.vec.insert19 = insertelement <2 x float> %.sroa.014.0.vec.insert17, float %6, i64 1
  %7 = fdiv float %.sroa.05.4.vec.extract, %4
  %.sroa.014.0 = select i1 %5, <2 x float> zeroinitializer, <2 x float> %.sroa.014.4.vec.insert19
  %.sroa.5.0 = select i1 %5, float %.sroa.05.4.vec.extract, float %7
  %.fca.0.insert = insertvalue { <2 x float>, float } poison, <2 x float> %.sroa.014.0, 0
  %.fca.1.insert = insertvalue { <2 x float>, float } %.fca.0.insert, float %.sroa.5.0, 1
  ret { <2 x float>, float } %.fca.1.insert
}